; Function Attrs: nounwind sspstrong uwtable
define internal i64 @call_verify_cb_proc(i64 noundef %0) #0 {
  %2 = inttoptr i64 %0 to ptr
  %3 = load i64, ptr %2, align 8, !tbaa !10
  %.pr.i = load i64, ptr @call_verify_cb_proc.rbimpl_id, align 8, !tbaa !20
  %.not4.i = icmp eq i64 %.pr.i, 0
  br i1 %.not4.i, label %.lr.ph.i, label %rbimpl_intern_const.exit

.lr.ph.i:                                         ; preds = %1, %.lr.ph.i
  %4 = tail call i64 @rb_intern2(ptr noundef nonnull @.str.33, i64 noundef 4) #5
  store i64 %4, ptr @call_verify_cb_proc.rbimpl_id, align 8, !tbaa !20
  %.not.i = icmp eq i64 %4, 0
  br i1 %.not.i, label %.lr.ph.i, label %rbimpl_intern_const.exit, !llvm.loop !21

rbimpl_intern_const.exit:                         ; preds = %.lr.ph.i, %1
  %.lcssa.i = phi i64 [ %.pr.i, %1 ], [ %4, %.lr.ph.i ]
  %5 = getelementptr inbounds nuw i8, ptr %2, i64 8
  %6 = load i64, ptr %5, align 8, !tbaa !13
  %7 = getelementptr inbounds nuw i8, ptr %2, i64 16
  %8 = load i64, ptr %7, align 8, !tbaa !14
  %9 = tail call i64 (i64, i64, i32, ...) @rb_funcall(i64 noundef %3, i64 noundef %.lcssa.i, i32 noundef 2, i64 noundef %6, i64 noundef %8) #5
  ret i64 %9
}